; Listing generated by Microsoft (R) Optimizing Compiler Version 19.00.23026.0 

	TITLE	F:\Swerve\Libs\zlib1211\zlib-1.2.11\gzlib.c
	.686P
	.XMM
	include listing.inc
	.model	flat

INCLUDELIB OLDNAMES

PUBLIC	??_C@_02DKCKIIND@?$CFs?$AA@			; `string'
PUBLIC	??_C@_07EBNKNFJN@?$DMfd?3?$CFd?$DO?$AA@		; `string'
PUBLIC	??_C@_0O@BNNCBLEN@out?5of?5memory?$AA@		; `string'
PUBLIC	??_C@_00CNPNBAHC@?$AA@				; `string'
PUBLIC	??_C@_02LMMGGCAJ@?3?5?$AA@			; `string'
PUBLIC	??_C@_06DIJPEION@?$CFs?$CFs?$CFs?$AA@		; `string'
EXTRN	_malloc:PROC
EXTRN	_free:PROC
EXTRN	___stdio_common_vsprintf:PROC
EXTRN	_wcstombs:PROC
EXTRN	__open:PROC
EXTRN	__wopen:PROC
EXTRN	__lseeki64:PROC
;	COMDAT ??_C@_06DIJPEION@?$CFs?$CFs?$CFs?$AA@
CONST	SEGMENT
??_C@_06DIJPEION@?$CFs?$CFs?$CFs?$AA@ DB '%s%s%s', 00H	; `string'
CONST	ENDS
;	COMDAT ??_C@_02LMMGGCAJ@?3?5?$AA@
CONST	SEGMENT
??_C@_02LMMGGCAJ@?3?5?$AA@ DB ': ', 00H			; `string'
CONST	ENDS
;	COMDAT ??_C@_00CNPNBAHC@?$AA@
CONST	SEGMENT
??_C@_00CNPNBAHC@?$AA@ DB 00H				; `string'
CONST	ENDS
;	COMDAT ??_C@_0O@BNNCBLEN@out?5of?5memory?$AA@
CONST	SEGMENT
??_C@_0O@BNNCBLEN@out?5of?5memory?$AA@ DB 'out of memory', 00H ; `string'
CONST	ENDS
;	COMDAT ??_C@_07EBNKNFJN@?$DMfd?3?$CFd?$DO?$AA@
CONST	SEGMENT
??_C@_07EBNKNFJN@?$DMfd?3?$CFd?$DO?$AA@ DB '<fd:%d>', 00H ; `string'
CONST	ENDS
;	COMDAT ??_C@_02DKCKIIND@?$CFs?$AA@
CONST	SEGMENT
??_C@_02DKCKIIND@?$CFs?$AA@ DB '%s', 00H		; `string'
PUBLIC	_gz_error
PUBLIC	_gzclearerr@4
PUBLIC	_gzerror@8
PUBLIC	_gzeof@4
PUBLIC	_gzoffset@4
PUBLIC	_gzoffset64@4
PUBLIC	_gztell@4
PUBLIC	_gztell64@4
PUBLIC	_gzseek@12
PUBLIC	_gzseek64@16
PUBLIC	_gzrewind@4
PUBLIC	_gzbuffer@8
PUBLIC	_gzopen_w@8
PUBLIC	_gzdopen@8
PUBLIC	_gzopen@8
PUBLIC	_snprintf
PUBLIC	_vsnprintf
PUBLIC	___local_stdio_printf_options
END
