; Listing generated by Microsoft (R) Optimizing Compiler Version 19.00.23026.0 

	TITLE	F:\Swerve\Libs\zlib1211\zlib-1.2.11\gzread.c
	.686P
	.XMM
	include listing.inc
	.model	flat

INCLUDELIB OLDNAMES

PUBLIC	??_C@_0BH@CFIIDOJD@unexpected?5end?5of?5file?$AA@ ; `string'
PUBLIC	??_C@_0CH@CPOLIEKA@internal?5error?3?5inflate?5stream?5c@ ; `string'
PUBLIC	??_C@_0BG@HCKBMIHF@compressed?5data?5error?$AA@	; `string'
PUBLIC	??_C@_0BP@HLDABFKK@request?5does?5not?5fit?5in?5an?5int?$AA@ ; `string'
PUBLIC	??_C@_0CB@EGGJDMIK@request?5does?5not?5fit?5in?5a?5size_t@ ; `string'
PUBLIC	??_C@_0BP@IIKIGMCC@out?5of?5room?5to?5push?5characters?$AA@ ; `string'
EXTRN	_strerror:PROC
EXTRN	_memchr:PROC
EXTRN	__errno:PROC
EXTRN	__close:PROC
EXTRN	__read:PROC
;	COMDAT ??_C@_0BP@IIKIGMCC@out?5of?5room?5to?5push?5characters?$AA@
CONST	SEGMENT
??_C@_0BP@IIKIGMCC@out?5of?5room?5to?5push?5characters?$AA@ DB 'out of ro'
	DB	'om to push characters', 00H			; `string'
CONST	ENDS
;	COMDAT ??_C@_0CB@EGGJDMIK@request?5does?5not?5fit?5in?5a?5size_t@
CONST	SEGMENT
??_C@_0CB@EGGJDMIK@request?5does?5not?5fit?5in?5a?5size_t@ DB 'request do'
	DB	'es not fit in a size_t', 00H		; `string'
CONST	ENDS
;	COMDAT ??_C@_0BP@HLDABFKK@request?5does?5not?5fit?5in?5an?5int?$AA@
CONST	SEGMENT
??_C@_0BP@HLDABFKK@request?5does?5not?5fit?5in?5an?5int?$AA@ DB 'request '
	DB	'does not fit in an int', 00H		; `string'
CONST	ENDS
;	COMDAT ??_C@_0BG@HCKBMIHF@compressed?5data?5error?$AA@
CONST	SEGMENT
??_C@_0BG@HCKBMIHF@compressed?5data?5error?$AA@ DB 'compressed data error'
	DB	00H						; `string'
CONST	ENDS
;	COMDAT ??_C@_0CH@CPOLIEKA@internal?5error?3?5inflate?5stream?5c@
CONST	SEGMENT
??_C@_0CH@CPOLIEKA@internal?5error?3?5inflate?5stream?5c@ DB 'internal er'
	DB	'ror: inflate stream corrupt', 00H		; `string'
CONST	ENDS
;	COMDAT ??_C@_0BH@CFIIDOJD@unexpected?5end?5of?5file?$AA@
CONST	SEGMENT
??_C@_0BH@CFIIDOJD@unexpected?5end?5of?5file?$AA@ DB 'unexpected end of f'
	DB	'ile', 00H					; `string'
PUBLIC	_gzdirect@4
PUBLIC	_gzgets@12
PUBLIC	_gzungetc@8
PUBLIC	_gzgetc_@4
PUBLIC	_gzgetc@4
PUBLIC	_gzfread@16
PUBLIC	_gzread@12
PUBLIC	_gzclose_r@4
END
