; Listing generated by Microsoft (R) Optimizing Compiler Version 19.00.23026.0 

	TITLE	F:\Swerve\Libs\zlib1211\zlib-1.2.11\contrib\minizip\unzip.c
	.686P
	.XMM
	include listing.inc
	.model	flat

INCLUDELIB OLDNAMES

PUBLIC	_unz_copyright
	ORG $+1
_unz_copyright DB ' unzip 1.01 Copyright 1998-2004 Gilles Vollant - http:'
	DB	'//www.winimage.com/zLibDll', 00H
PUBLIC	_unzGetGlobalComment@12
PUBLIC	_unzCloseCurrentFile@4
PUBLIC	_unzGetLocalExtrafield@12
PUBLIC	_unzeof@4
PUBLIC	_unztell64@4
PUBLIC	_unztell@4
PUBLIC	_unzReadCurrentFile@12
PUBLIC	_unzGetCurrentFileZStreamPos64@4
PUBLIC	_unzOpenCurrentFile2@16
PUBLIC	_unzOpenCurrentFilePassword@8
PUBLIC	_unzOpenCurrentFile@4
PUBLIC	_unzOpenCurrentFile3@20
PUBLIC	_unzGoToFilePos@8
PUBLIC	_unzGoToFilePos64@8
PUBLIC	_unzGetFilePos@8
PUBLIC	_unzGetFilePos64@8
PUBLIC	_unzLocateFile@12
PUBLIC	_unzGoToNextFile@4
PUBLIC	_unzGoToFirstFile@4
PUBLIC	_unzGetCurrentFileInfo@32
PUBLIC	_unzGetCurrentFileInfo64@32
PUBLIC	_unzGetGlobalInfo@8
PUBLIC	_unzGetGlobalInfo64@8
PUBLIC	_unzClose@4
PUBLIC	_unzOpen64@4
PUBLIC	_unzOpen@4
PUBLIC	_unzOpen2_64@8
PUBLIC	_unzOpen2@8
PUBLIC	_unzStringFileNameCompare@12
END
