; Listing generated by Microsoft (R) Optimizing Compiler Version 19.00.23026.0 

	TITLE	F:\Swerve\Libs\zlib1211\zlib-1.2.11\contrib\minizip\zip.c
	.686P
	.XMM
	include listing.inc
	.model	flat

INCLUDELIB OLDNAMES

PUBLIC	??_C@_01JOAMLHOP@?9?$AA@			; `string'
EXTRN	__time64:PROC
EXTRN	_rand:PROC
EXTRN	_srand:PROC
?calls@?1??crypthead@@9@9 DD 01H DUP (?)		; `crypthead'::`2'::calls
_BSS	ENDS
;	COMDAT ??_C@_01JOAMLHOP@?9?$AA@
CONST	SEGMENT
??_C@_01JOAMLHOP@?9?$AA@ DB '-', 00H			; `string'
PUBLIC	_zipClose@8
PUBLIC	_Write_GlobalComment
PUBLIC	_Write_EndOfCentralDirectoryRecord
PUBLIC	_Write_Zip64EndOfCentralDirectoryRecord
PUBLIC	_Write_Zip64EndOfCentralDirectoryLocator
PUBLIC	_zipCloseFileInZip@4
PUBLIC	_zipCloseFileInZipRaw64@16
PUBLIC	_zipCloseFileInZipRaw@12
PUBLIC	_zipWriteInFileInZip@12
PUBLIC	_zipOpenNewFileInZip@40
PUBLIC	_zipOpenNewFileInZip64@44
PUBLIC	_zipOpenNewFileInZip2_64@48
PUBLIC	_zipOpenNewFileInZip2@44
PUBLIC	_zipOpenNewFileInZip3_64@68
PUBLIC	_zipOpenNewFileInZip3@64
PUBLIC	_zipOpenNewFileInZip4_64@76
PUBLIC	_Write_LocalFileHeader
PUBLIC	_zipOpen64@8
PUBLIC	_zipOpen@8
PUBLIC	_zipOpen2_64@16
PUBLIC	_zipOpen2@16
PUBLIC	_zipOpen3@16
PUBLIC	_LoadCentralDirectoryRecord
END
