; Listing generated by Microsoft (R) Optimizing Compiler Version 19.00.23026.0 

	TITLE	F:\Swerve\Libs\zlib1211\zlib-1.2.11\zutil.c
	.686P
	.XMM
	include listing.inc
	.model	flat

INCLUDELIB OLDNAMES

PUBLIC	_z_errmsg
PUBLIC	??_C@_0BA@MOKMMFOD@need?5dictionary?$AA@	; `string'
PUBLIC	??_C@_0L@FNAOCBOG@stream?5end?$AA@		; `string'
PUBLIC	??_C@_0L@KIJFAKBJ@file?5error?$AA@		; `string'
PUBLIC	??_C@_0N@MKKNPMJD@stream?5error?$AA@		; `string'
PUBLIC	??_C@_0L@HAHMBNLP@data?5error?$AA@		; `string'
PUBLIC	??_C@_0BE@OGGJBMCE@insufficient?5memory?$AA@	; `string'
PUBLIC	??_C@_0N@DFPGLBGC@buffer?5error?$AA@		; `string'
PUBLIC	??_C@_0BF@CJFPCCEG@incompatible?5version?$AA@	; `string'
;	COMDAT ??_C@_0BF@CJFPCCEG@incompatible?5version?$AA@
CONST	SEGMENT
??_C@_0BF@CJFPCCEG@incompatible?5version?$AA@ DB 'incompatible version', 00H ; `string'
CONST	ENDS
;	COMDAT ??_C@_0N@DFPGLBGC@buffer?5error?$AA@
CONST	SEGMENT
??_C@_0N@DFPGLBGC@buffer?5error?$AA@ DB 'buffer error', 00H ; `string'
CONST	ENDS
;	COMDAT ??_C@_0BE@OGGJBMCE@insufficient?5memory?$AA@
CONST	SEGMENT
??_C@_0BE@OGGJBMCE@insufficient?5memory?$AA@ DB 'insufficient memory', 00H ; `string'
CONST	ENDS
;	COMDAT ??_C@_0L@HAHMBNLP@data?5error?$AA@
CONST	SEGMENT
??_C@_0L@HAHMBNLP@data?5error?$AA@ DB 'data error', 00H	; `string'
CONST	ENDS
;	COMDAT ??_C@_0N@MKKNPMJD@stream?5error?$AA@
CONST	SEGMENT
??_C@_0N@MKKNPMJD@stream?5error?$AA@ DB 'stream error', 00H ; `string'
CONST	ENDS
;	COMDAT ??_C@_0L@KIJFAKBJ@file?5error?$AA@
CONST	SEGMENT
??_C@_0L@KIJFAKBJ@file?5error?$AA@ DB 'file error', 00H	; `string'
CONST	ENDS
;	COMDAT ??_C@_0L@FNAOCBOG@stream?5end?$AA@
CONST	SEGMENT
??_C@_0L@FNAOCBOG@stream?5end?$AA@ DB 'stream end', 00H	; `string'
CONST	ENDS
;	COMDAT ??_C@_0BA@MOKMMFOD@need?5dictionary?$AA@
CONST	SEGMENT
??_C@_0BA@MOKMMFOD@need?5dictionary?$AA@ DB 'need dictionary', 00H ; `string'
	ORG $+3
_z_errmsg DD	FLAT:??_C@_0BA@MOKMMFOD@need?5dictionary?$AA@
	DD	FLAT:??_C@_0L@FNAOCBOG@stream?5end?$AA@
	DD	FLAT:??_C@_00CNPNBAHC@?$AA@
	DD	FLAT:??_C@_0L@KIJFAKBJ@file?5error?$AA@
	DD	FLAT:??_C@_0N@MKKNPMJD@stream?5error?$AA@
	DD	FLAT:??_C@_0L@HAHMBNLP@data?5error?$AA@
	DD	FLAT:??_C@_0BE@OGGJBMCE@insufficient?5memory?$AA@
	DD	FLAT:??_C@_0N@DFPGLBGC@buffer?5error?$AA@
	DD	FLAT:??_C@_0BF@CJFPCCEG@incompatible?5version?$AA@
	DD	FLAT:??_C@_00CNPNBAHC@?$AA@
PUBLIC	_zError@4
PUBLIC	_zlibCompileFlags@0
PUBLIC	_zlibVersion@0
PUBLIC	_zcfree
PUBLIC	_zcalloc
END
